; Function Attrs: nounwind ssp uwtable
define dso_local range(i32 -1, 1) i32 @crypto_secretstream_xchacha20poly1305_pull(ptr noundef nonnull %0, ptr noundef %1, ptr noundef writeonly captures(address_is_null) %2, ptr noundef writeonly captures(address_is_null) %3, ptr noundef %4, i64 noundef %5, ptr noundef %6, i64 noundef %7) local_unnamed_addr #0 {
  %9 = alloca [40 x i8], align 16
  %10 = alloca %struct.crypto_onetimeauth_poly1305_state, align 16
  %11 = alloca [64 x i8], align 16
  %12 = alloca [8 x i8], align 8
  %13 = alloca [16 x i8], align 16
  call void @llvm.lifetime.start.p0(i64 256, ptr nonnull %10) #7
  call void @llvm.lifetime.start.p0(i64 64, ptr nonnull %11) #7
  call void @llvm.lifetime.start.p0(i64 8, ptr nonnull %12) #7
  call void @llvm.lifetime.start.p0(i64 16, ptr nonnull %13) #7
  %.not = icmp eq ptr %2, null
  br i1 %.not, label %15, label %14

14:                                               ; preds = %8
  store i64 0, ptr %2, align 8
  br label %15

15:                                               ; preds = %14, %8
  %.not46 = icmp eq ptr %3, null
  br i1 %.not46, label %17, label %16

16:                                               ; preds = %15
  store i8 -1, ptr %3, align 1
  br label %17

17:                                               ; preds = %16, %15
  %18 = icmp ult i64 %5, 17
  br i1 %18, label %69, label %19

19:                                               ; preds = %17
  %20 = add i64 %5, -17
  %21 = icmp ugt i64 %20, 274877906816
  br i1 %21, label %22, label %23

22:                                               ; preds = %19
  tail call void @sodium_misuse() #8
  unreachable

23:                                               ; preds = %19
  %24 = getelementptr inbounds nuw i8, ptr %0, i64 32
  %25 = call i32 @crypto_stream_chacha20_ietf(ptr noundef nonnull %11, i64 noundef 64, ptr noundef nonnull %24, ptr noundef nonnull %0) #7
  %26 = call i32 @crypto_onetimeauth_poly1305_init(ptr noundef nonnull %10, ptr noundef nonnull %11) #7
  call void @sodium_memzero(ptr noundef nonnull %11, i64 noundef 64) #7
  %27 = call i32 @crypto_onetimeauth_poly1305_update(ptr noundef nonnull %10, ptr noundef %6, i64 noundef %7) #7
  %28 = sub i64 0, %7
  %29 = and i64 %28, 15
  %30 = call i32 @crypto_onetimeauth_poly1305_update(ptr noundef nonnull %10, ptr noundef nonnull @_pad0, i64 noundef %29) #7
  call void @llvm.memset.p0.i64(ptr noundef nonnull align 16 dereferenceable(64) %11, i8 noundef 0, i64 noundef 64, i1 noundef false) #7
  %31 = load i8, ptr %4, align 1
  store i8 %31, ptr %11, align 16
  %32 = call i32 @crypto_stream_chacha20_ietf_xor_ic(ptr noundef nonnull %11, ptr noundef nonnull %11, i64 noundef 64, ptr noundef nonnull %24, i32 noundef 1, ptr noundef nonnull %0) #7
  %33 = load i8, ptr %11, align 16
  %34 = load i8, ptr %4, align 1
  store i8 %34, ptr %11, align 16
  %35 = call i32 @crypto_onetimeauth_poly1305_update(ptr noundef nonnull %10, ptr noundef nonnull %11, i64 noundef 64) #7
  %36 = getelementptr i8, ptr %4, i64 1
  %37 = call i32 @crypto_onetimeauth_poly1305_update(ptr noundef nonnull %10, ptr noundef %36, i64 noundef %20) #7
  %38 = add nuw nsw i64 %5, 15
  %39 = and i64 %38, 15
  %40 = call i32 @crypto_onetimeauth_poly1305_update(ptr noundef nonnull %10, ptr noundef nonnull @_pad0, i64 noundef %39) #7
  store i64 %7, ptr %12, align 8
  %41 = call i32 @crypto_onetimeauth_poly1305_update(ptr noundef nonnull %10, ptr noundef nonnull %12, i64 noundef 8) #7
  %42 = add nuw nsw i64 %5, 47
  store i64 %42, ptr %12, align 8
  %43 = call i32 @crypto_onetimeauth_poly1305_update(ptr noundef nonnull %10, ptr noundef nonnull %12, i64 noundef 8) #7
  %44 = call i32 @crypto_onetimeauth_poly1305_final(ptr noundef nonnull %10, ptr noundef nonnull %13) #7
  call void @sodium_memzero(ptr noundef nonnull %10, i64 noundef 256) #7
  %45 = getelementptr i8, ptr %36, i64 %20
  %46 = call i32 @sodium_memcmp(ptr noundef nonnull %13, ptr noundef %45, i64 noundef 16) #7
  %.not47 = icmp eq i32 %46, 0
  br i1 %.not47, label %48, label %47

47:                                               ; preds = %23
  call void @sodium_memzero(ptr noundef nonnull %13, i64 noundef 16) #7
  br label %69

48:                                               ; preds = %23
  %49 = call i32 @crypto_stream_chacha20_ietf_xor_ic(ptr noundef %1, ptr noundef %36, i64 noundef %20, ptr noundef nonnull %24, i32 noundef 2, ptr noundef nonnull %0) #7
  %50 = getelementptr i8, ptr %0, i64 36
  br label %51

51:                                               ; preds = %51, %48
  %.06.i = phi i64 [ 0, %48 ], [ %57, %51 ]
  %52 = getelementptr i8, ptr %13, i64 %.06.i
  %53 = load i8, ptr %52, align 1
  %54 = getelementptr i8, ptr %50, i64 %.06.i
  %55 = load i8, ptr %54, align 1
  %56 = xor i8 %55, %53
  store i8 %56, ptr %54, align 1
  %57 = add nuw nsw i64 %.06.i, 1
  %exitcond.not.i = icmp eq i64 %57, 8
  br i1 %exitcond.not.i, label %xor_buf.exit, label %51, !llvm.loop !4

xor_buf.exit:                                     ; preds = %51
  call void @sodium_increment(ptr noundef nonnull %24, i64 noundef 4) #7
  %58 = and i8 %33, 2
  %.not48 = icmp eq i8 %58, 0
  br i1 %.not48, label %59, label %61

59:                                               ; preds = %xor_buf.exit
  %60 = call i32 @sodium_is_zero(ptr noundef nonnull %24, i64 noundef 4) #7
  %.not49 = icmp eq i32 %60, 0
  br i1 %.not49, label %65, label %61

61:                                               ; preds = %59, %xor_buf.exit
  call void @llvm.lifetime.start.p0(i64 40, ptr nonnull %9) #7
  call void @llvm.memcpy.p0.p0.i64(ptr noundef nonnull align 16 dereferenceable(32) %9, ptr noundef nonnull align 1 dereferenceable(32) %0, i64 32, i1 false)
  %scevgep.i = getelementptr inbounds nuw i8, ptr %9, i64 32
  %62 = load i64, ptr %50, align 1
  store i64 %62, ptr %scevgep.i, align 16
  %63 = call i32 @crypto_stream_chacha20_ietf_xor(ptr noundef nonnull %9, ptr noundef nonnull %9, i64 noundef 40, ptr noundef nonnull %24, ptr noundef nonnull %0) #7
  call void @llvm.memcpy.p0.p0.i64(ptr noundef nonnull align 1 dereferenceable(32) %0, ptr noundef nonnull align 16 dereferenceable(32) %9, i64 32, i1 false)
  %64 = load i64, ptr %scevgep.i, align 16
  store i64 %64, ptr %50, align 1
  store i32 0, ptr %24, align 1
  store i8 1, ptr %24, align 1
  call void @llvm.lifetime.end.p0(i64 40, ptr nonnull %9) #7
  br label %65

65:                                               ; preds = %61, %59
  br i1 %.not, label %67, label %66

66:                                               ; preds = %65
  store i64 %20, ptr %2, align 8
  br label %67

67:                                               ; preds = %66, %65
  br i1 %.not46, label %69, label %68

68:                                               ; preds = %67
  store i8 %33, ptr %3, align 1
  br label %69

69:                                               ; preds = %67, %68, %17, %47
  %.0 = phi i32 [ -1, %47 ], [ -1, %17 ], [ 0, %68 ], [ 0, %67 ]
  call void @llvm.lifetime.end.p0(i64 16, ptr nonnull %13) #7
  call void @llvm.lifetime.end.p0(i64 8, ptr nonnull %12) #7
  call void @llvm.lifetime.end.p0(i64 64, ptr nonnull %11) #7
  call void @llvm.lifetime.end.p0(i64 256, ptr nonnull %10) #7
  ret i32 %.0
}